; Function Attrs: mustprogress uwtable
define hidden noundef zeroext i1 @_ZN7datalog21bound_relation_plugin20is_interval_relationERKNS_13relation_baseE(ptr noundef nonnull readonly align 8 captures(none) dereferenceable(28) %0) local_unnamed_addr #3 align 2 {
  %2 = alloca %class.symbol, align 8
  call void @llvm.lifetime.start.p0(i64 8, ptr nonnull %2) #24
  call void @_ZN6symbolC1EPKc(ptr noundef nonnull align 8 dereferenceable(8) %2, ptr noundef nonnull @.str)
  %3 = getelementptr inbounds nuw i8, ptr %0, i64 8
  %4 = load ptr, ptr %3, align 8, !tbaa !54
  %5 = getelementptr inbounds nuw i8, ptr %4, i64 16
  %6 = load ptr, ptr %2, align 8, !tbaa !60
  %7 = load ptr, ptr %5, align 8, !tbaa !60
  %8 = icmp eq ptr %6, %7
  call void @llvm.lifetime.end.p0(i64 8, ptr nonnull %2) #24
  ret i1 %8
}